target datalayout = "e-m:e-p270:32:32-p271:32:32-p272:64:64-i64:64-i128:128-f80:128-n8:16:32:64-S128"
target triple = "x86_64-pc-linux-gnu"

%struct._object = type { %union.anon, ptr }
%union.anon = type { i64 }

@_Py_NoneStruct = external global %struct._object, align 8
@PyExc_AssertionError = external global ptr, align 8
@.str.17 = private unnamed_addr constant [61 x i8] c"test_gc_visit_objects_exit_early: did not exit when expected\00", align 1

; Function Attrs: nounwind uwtable
define internal ptr @test_gc_visit_objects_exit_early(ptr noundef %0, ptr noundef %1) #0 {
  %3 = alloca ptr, align 8
  %4 = alloca ptr, align 8
  %5 = alloca i32, align 4
  store ptr %0, ptr %3, align 8, !tbaa !3
  store ptr %1, ptr %4, align 8, !tbaa !3
  call void @llvm.lifetime.start.p0(i64 4, ptr %5) #6
  store i32 0, ptr %5, align 4, !tbaa !8
  call void @PyUnstable_GC_VisitObjects(ptr noundef @gc_visit_callback_exit_early, ptr noundef %5)
  %6 = load i32, ptr %5, align 4, !tbaa !8
  %7 = icmp ne i32 %6, 2
  br i1 %7, label %8, label %10

8:                                                ; preds = %2
  %9 = load ptr, ptr @PyExc_AssertionError, align 8, !tbaa !3
  call void @PyErr_SetString(ptr noundef %9, ptr noundef @.str.17)
  br label %10

10:                                               ; preds = %8, %2
  call void @llvm.lifetime.end.p0(i64 4, ptr %5) #6
  ret ptr @_Py_NoneStruct
}