; Function Attrs: nounwind uwtable
define internal noundef nonnull ptr @test_gc_visit_objects_exit_early(ptr readnone captures(none) %0, ptr readnone captures(none) %1) #0 {
  %3 = alloca i32, align 4
  call void @llvm.lifetime.start.p0(i64 4, ptr nonnull %3) #8
  store i32 0, ptr %3, align 4, !tbaa !13
  call void @PyUnstable_GC_VisitObjects(ptr noundef nonnull @gc_visit_callback_exit_early, ptr noundef nonnull %3) #8
  %4 = load i32, ptr %3, align 4, !tbaa !13
  %.not = icmp eq i32 %4, 2
  br i1 %.not, label %7, label %5

5:                                                ; preds = %2
  %6 = load ptr, ptr @PyExc_AssertionError, align 8, !tbaa !6
  call void @PyErr_SetString(ptr noundef %6, ptr noundef nonnull @.str.17) #8
  br label %7

7:                                                ; preds = %5, %2
  call void @llvm.lifetime.end.p0(i64 4, ptr nonnull %3) #8
  ret ptr @_Py_NoneStruct
}